target datalayout = "e-m:e-p270:32:32-p271:32:32-p272:64:64-i64:64-i128:128-f80:128-n8:16:32:64-S128"
target triple = "x86_64-pc-linux-gnu"

%struct._php_core_globals = type { i64, i8, i8, i8, i8, i8, i8, i8, i8, ptr, ptr, i64, i64, i64, ptr, ptr, ptr, ptr, ptr, i8, ptr, ptr, ptr, ptr, i64, ptr, ptr, ptr, ptr, ptr, ptr, ptr, %struct._arg_separators, ptr, %struct._zend_array, i16, i8, i8, %struct._zend_llist, [6 x %struct._zval_struct], i8, i8, i8, i8, i8, ptr, ptr, i64, [8 x i8], i8, i8, i8, i8, i8, i8, i32, i32, ptr, ptr, ptr, ptr, i64, i64, ptr, i64, ptr, ptr, i8, i8, i8, i8, i8, i8, i64, ptr, i64, i64 }
%struct._arg_separators = type { ptr, ptr }
%struct._zend_array = type { %struct._zend_refcounted_h, %union.anon.0, i32, %union.anon.1, i32, i32, i32, i32, i64, ptr }
%struct._zend_refcounted_h = type { i32, %union.anon }
%union.anon = type { i32 }
%union.anon.0 = type { i32 }
%union.anon.1 = type { ptr }
%struct._zend_llist = type { ptr, ptr, i64, i64, ptr, i8, ptr }
%struct._zval_struct = type { %union._zend_value, %union.anon.3, %union.anon.6 }
%union._zend_value = type { i64 }
%union.anon.3 = type { i32 }
%union.anon.6 = type { i32 }
%struct.__va_list_tag = type { i32, i32, ptr, ptr }

@core_globals = external global %struct._php_core_globals, align 8

; Function Attrs: nounwind uwtable
define void @php_openlog(ptr noundef %0, i32 noundef %1, i32 noundef %2) #0 {
  %4 = alloca ptr, align 8
  %5 = alloca i32, align 4
  %6 = alloca i32, align 4
  store ptr %0, ptr %4, align 8
  store i32 %1, ptr %5, align 4
  store i32 %2, ptr %6, align 4
  %7 = load ptr, ptr %4, align 8
  %8 = load i32, ptr %5, align 4
  %9 = load i32, ptr %6, align 4
  call void @openlog(ptr noundef %7, i32 noundef %8, i32 noundef %9)
  store i8 1, ptr getelementptr inbounds (%struct._php_core_globals, ptr @core_globals, i32 0, i32 72), align 1
  ret void
}

; Function Attrs: nounwind uwtable
define void @php_syslog(i32 noundef %0, ptr noundef %1, ...) #0 {
  %3 = alloca ptr, align 8
  %4 = alloca i32, align 4
  %5 = alloca i32, align 4
  %6 = alloca ptr, align 8
  %7 = alloca i32, align 4
  %8 = alloca ptr, align 8
  %9 = alloca ptr, align 8
  %10 = alloca [1 x %struct.__va_list_tag], align 16
  store i32 %0, ptr %7, align 4
  store ptr %1, ptr %8, align 8
  store ptr null, ptr %9, align 8
  %11 = load i8, ptr getelementptr inbounds (%struct._php_core_globals, ptr @core_globals, i32 0, i32 72), align 1
  %12 = trunc i8 %11 to i1
  br i1 %12, label %17, label %13

13:                                               ; preds = %2
  %14 = load ptr, ptr getelementptr inbounds (%struct._php_core_globals, ptr @core_globals, i32 0, i32 74), align 8
  %15 = load i64, ptr getelementptr inbounds (%struct._php_core_globals, ptr @core_globals, i32 0, i32 73), align 8
  %16 = trunc i64 %15 to i32
  call void @php_openlog(ptr noundef %14, i32 noundef 0, i32 noundef %16)
  br label %17

17:                                               ; preds = %13, %2
  %18 = getelementptr inbounds [1 x %struct.__va_list_tag], ptr %10, i64 0, i64 0
  call void @llvm.va_start(ptr %18)
  %19 = load ptr, ptr %8, align 8
  %20 = getelementptr inbounds [1 x %struct.__va_list_tag], ptr %10, i64 0, i64 0
  %21 = call ptr @zend_vstrpprintf(i64 noundef 0, ptr noundef %19, ptr noundef %20)
  store ptr %21, ptr %9, align 8
  %22 = getelementptr inbounds [1 x %struct.__va_list_tag], ptr %10, i64 0, i64 0
  call void @llvm.va_end(ptr %22)
  %23 = load i32, ptr %7, align 4
  %24 = load ptr, ptr %9, align 8
  call void @php_syslog_str(i32 noundef %23, ptr noundef %24)
  %25 = load ptr, ptr %9, align 8
  store ptr %25, ptr %6, align 8
  %26 = load ptr, ptr %6, align 8
  %27 = getelementptr inbounds %struct._zend_refcounted_h, ptr %26, i32 0, i32 1
  %28 = load i32, ptr %27, align 4
  store i32 %28, ptr %4, align 4
  %29 = load i32, ptr %4, align 4
  %30 = and i32 %29, 1008
  %31 = and i32 %30, 64
  %32 = icmp ne i32 %31, 0
  br i1 %32, label %56, label %33

33:                                               ; preds = %17
  %34 = load ptr, ptr %6, align 8
  store ptr %34, ptr %3, align 8
  %35 = load ptr, ptr %3, align 8
  %36 = load i32, ptr %35, align 4
  %37 = icmp ugt i32 %36, 0
  call void @llvm.assume(i1 %37)
  %38 = load ptr, ptr %3, align 8
  %39 = load i32, ptr %38, align 4
  %40 = add i32 %39, -1
  store i32 %40, ptr %38, align 4
  %41 = icmp eq i32 %40, 0
  br i1 %41, label %42, label %55

42:                                               ; preds = %33
  %43 = load ptr, ptr %6, align 8
  %44 = getelementptr inbounds %struct._zend_refcounted_h, ptr %43, i32 0, i32 1
  %45 = load i32, ptr %44, align 4
  store i32 %45, ptr %5, align 4
  %46 = load i32, ptr %5, align 4
  %47 = and i32 %46, 1008
  %48 = and i32 %47, 128
  %49 = icmp ne i32 %48, 0
  br i1 %49, label %50, label %52

50:                                               ; preds = %42
  %51 = load ptr, ptr %6, align 8
  call void @free(ptr noundef %51) #7
  br label %54

52:                                               ; preds = %42
  %53 = load ptr, ptr %6, align 8
  call void @_efree(ptr noundef %53) #7
  br label %54

54:                                               ; preds = %52, %50
  br label %55

55:                                               ; preds = %54, %33
  br label %56

56:                                               ; preds = %55, %17
  ret void
}