; Function Attrs: nounwind uwtable
define void @php_syslog(i32 noundef %0, ptr noundef %1, ...) local_unnamed_addr #0 {
  %3 = alloca [1 x %struct.__va_list_tag], align 16
  %4 = load i8, ptr getelementptr inbounds (%struct._php_core_globals, ptr @core_globals, i64 0, i32 72), align 1
  %5 = and i8 %4, 1
  %.not = icmp eq i8 %5, 0
  br i1 %.not, label %6, label %10

6:                                                ; preds = %2
  %7 = load ptr, ptr getelementptr inbounds (%struct._php_core_globals, ptr @core_globals, i64 0, i32 74), align 8
  %8 = load i64, ptr getelementptr inbounds (%struct._php_core_globals, ptr @core_globals, i64 0, i32 73), align 8
  %9 = trunc i64 %8 to i32
  tail call void @openlog(ptr noundef %7, i32 noundef 0, i32 noundef %9) #6
  store i8 1, ptr getelementptr inbounds (%struct._php_core_globals, ptr @core_globals, i64 0, i32 72), align 1
  br label %10

10:                                               ; preds = %6, %2
  call void @llvm.va_start(ptr nonnull %3)
  %11 = call ptr @zend_vstrpprintf(i64 noundef 0, ptr noundef %1, ptr noundef nonnull %3) #6
  call void @llvm.va_end(ptr nonnull %3)
  call void @php_syslog_str(i32 noundef %0, ptr noundef %11)
  %12 = getelementptr inbounds i8, ptr %11, i64 4
  %13 = load i32, ptr %12, align 4
  %14 = and i32 %13, 64
  %.not12 = icmp eq i32 %14, 0
  br i1 %.not12, label %15, label %24

15:                                               ; preds = %10
  %16 = load i32, ptr %11, align 4
  %17 = icmp ne i32 %16, 0
  call void @llvm.assume(i1 %17)
  %18 = add i32 %16, -1
  store i32 %18, ptr %11, align 4
  %19 = icmp eq i32 %18, 0
  br i1 %19, label %20, label %24

20:                                               ; preds = %15
  %21 = and i32 %13, 128
  %.not13 = icmp eq i32 %21, 0
  br i1 %.not13, label %23, label %22

22:                                               ; preds = %20
  call void @free(ptr noundef nonnull %11) #6
  br label %24

23:                                               ; preds = %20
  call void @_efree(ptr noundef nonnull %11) #6
  br label %24

24:                                               ; preds = %15, %23, %22, %10
  ret void
}